target datalayout = "e-m:e-p270:32:32-p271:32:32-p272:64:64-i64:64-i128:128-f80:128-n8:16:32:64-S128"
target triple = "x86_64-pc-linux-gnu"

%struct.weakmap = type { ptr }
%struct.wmap_compact_table_data = type { ptr, ptr }

; Function Attrs: inlinehint nounwind sspstrong uwtable
define internal void @ruby_sized_xfree_inlined(ptr noundef %0, i64 noundef %1) #3 {
  %3 = alloca ptr, align 8
  %4 = alloca i64, align 8
  store ptr %0, ptr %3, align 8, !tbaa !33
  store i64 %1, ptr %4, align 8, !tbaa !7
  %5 = load ptr, ptr %3, align 8, !tbaa !33
  call void @ruby_xfree(ptr noundef %5)
  ret void
}

; Function Attrs: nounwind sspstrong uwtable
define internal void @wmap_compact(ptr noundef %0) #0 {
  %2 = alloca ptr, align 8
  %3 = alloca ptr, align 8
  %4 = alloca %struct.wmap_compact_table_data, align 8
  store ptr %0, ptr %2, align 8, !tbaa !33
  call void @llvm.lifetime.start.p0(i64 8, ptr %3) #15
  %5 = load ptr, ptr %2, align 8, !tbaa !33
  store ptr %5, ptr %3, align 8, !tbaa !11
  %6 = load ptr, ptr %3, align 8, !tbaa !11
  %7 = getelementptr inbounds nuw %struct.weakmap, ptr %6, i32 0, i32 0
  %8 = load ptr, ptr %7, align 8, !tbaa !14
  %9 = icmp ne ptr %8, null
  br i1 %9, label %10, label %23

10:                                               ; preds = %1
  call void @llvm.lifetime.start.p0(i64 16, ptr %4) #15
  %11 = getelementptr inbounds nuw %struct.wmap_compact_table_data, ptr %4, i32 0, i32 0
  %12 = load ptr, ptr %3, align 8, !tbaa !11
  %13 = getelementptr inbounds nuw %struct.weakmap, ptr %12, i32 0, i32 0
  %14 = load ptr, ptr %13, align 8, !tbaa !14
  store ptr %14, ptr %11, align 8, !tbaa !34
  %15 = getelementptr inbounds nuw %struct.wmap_compact_table_data, ptr %4, i32 0, i32 1
  store ptr null, ptr %15, align 8, !tbaa !36
  %16 = load ptr, ptr %3, align 8, !tbaa !11
  %17 = getelementptr inbounds nuw %struct.weakmap, ptr %16, i32 0, i32 0
  %18 = load ptr, ptr %17, align 8, !tbaa !14
  %19 = ptrtoint ptr %4 to i64
  %20 = call i32 @rb_st_foreach(ptr noundef %18, ptr noundef @wmap_compact_table_i, i64 noundef %19)
  %21 = getelementptr inbounds nuw %struct.wmap_compact_table_data, ptr %4, i32 0, i32 1
  %22 = load ptr, ptr %21, align 8, !tbaa !36
  call void @ruby_sized_xfree_inlined(ptr noundef %22, i64 noundef 16)
  call void @llvm.lifetime.end.p0(i64 16, ptr %4) #15
  br label %23

23:                                               ; preds = %10, %1
  call void @llvm.lifetime.end.p0(i64 8, ptr %3) #15
  ret void
}