; Function Attrs: nounwind sspstrong uwtable
define internal void @wmap_compact(ptr noundef readonly captures(none) %0) #0 {
  %2 = alloca %struct.wmap_compact_table_data, align 8
  %3 = load ptr, ptr %0, align 8, !tbaa !17
  %.not = icmp eq ptr %3, null
  br i1 %.not, label %9, label %4

4:                                                ; preds = %1
  call void @llvm.lifetime.start.p0(i64 16, ptr nonnull %2) #10
  store ptr %3, ptr %2, align 8, !tbaa !35
  %5 = getelementptr inbounds nuw i8, ptr %2, i64 8
  store ptr null, ptr %5, align 8, !tbaa !37
  %6 = ptrtoint ptr %2 to i64
  %7 = call i32 @rb_st_foreach(ptr noundef nonnull %3, ptr noundef nonnull @wmap_compact_table_i, i64 noundef %6) #10
  %8 = load ptr, ptr %5, align 8, !tbaa !37
  call void @ruby_xfree(ptr noundef %8) #10
  call void @llvm.lifetime.end.p0(i64 16, ptr nonnull %2) #10
  br label %9

9:                                                ; preds = %4, %1
  ret void
}